target datalayout = "e-m:e-p270:32:32-p271:32:32-p272:64:64-i64:64-i128:128-f80:128-n8:16:32:64-S128"
target triple = "x86_64-unknown-linux-gnu"

%"class.cvc5::internal::NodeTemplate" = type { ptr }
%"class.cvc5::internal::TypeNode" = type { ptr }
%"class.cvc5::internal::theory::quantifiers::SygusEnumerator::TermEnum.base" = type <{ ptr, ptr, %"class.cvc5::internal::TypeNode", i32 }>
%"class.cvc5::internal::theory::quantifiers::SygusEnumerator::TermEnumMasterInterp" = type { %"class.cvc5::internal::theory::quantifiers::SygusEnumerator::TermEnum.base", %"class.cvc5::internal::theory::TypeEnumerator", i32, i32, i64 }
%"class.cvc5::internal::theory::TypeEnumerator" = type { ptr }

; Function Attrs: mustprogress uwtable
define linkonce_odr hidden void @_ZN4cvc58internal6theory14TypeEnumeratordeEv(ptr noalias sret(%"class.cvc5::internal::NodeTemplate") align 8 %agg.result, ptr noundef nonnull align 8 dereferenceable(8) %this) #4 comdat align 2 {
entry:
  %result.ptr = alloca ptr, align 8
  %this.addr = alloca ptr, align 8
  store ptr %agg.result, ptr %result.ptr, align 8
  store ptr %this, ptr %this.addr, align 8
  %this1 = load ptr, ptr %this.addr, align 8
  %d_te = getelementptr inbounds %"class.cvc5::internal::theory::TypeEnumerator", ptr %this1, i32 0, i32 0
  %0 = load ptr, ptr %d_te, align 8
  %vtable = load ptr, ptr %0, align 8
  %vfn = getelementptr inbounds ptr, ptr %vtable, i64 3
  %1 = load ptr, ptr %vfn, align 8
  call void %1(ptr sret(%"class.cvc5::internal::NodeTemplate") align 8 %agg.result, ptr noundef nonnull align 8 dereferenceable(16) %0)
  ret void
}

; Function Attrs: mustprogress uwtable
define hidden void @_ZN4cvc58internal6theory11quantifiers15SygusEnumerator20TermEnumMasterInterp10getCurrentEv(ptr noalias sret(%"class.cvc5::internal::NodeTemplate") align 8 %agg.result, ptr noundef nonnull align 8 dereferenceable(56) %this) unnamed_addr #4 align 2 {
entry:
  %result.ptr = alloca ptr, align 8
  %this.addr = alloca ptr, align 8
  store ptr %agg.result, ptr %result.ptr, align 8
  store ptr %this, ptr %this.addr, align 8
  %this1 = load ptr, ptr %this.addr, align 8
  %d_te = getelementptr inbounds %"class.cvc5::internal::theory::quantifiers::SygusEnumerator::TermEnumMasterInterp", ptr %this1, i32 0, i32 1
  call void @_ZN4cvc58internal6theory14TypeEnumeratordeEv(ptr sret(%"class.cvc5::internal::NodeTemplate") align 8 %agg.result, ptr noundef nonnull align 8 dereferenceable(8) %d_te)
  ret void
}