; Function Attrs: mustprogress uwtable
define hidden void @_ZN4cvc58internal6theory11quantifiers15SygusEnumerator20TermEnumMasterInterp10getCurrentEv(ptr noalias sret(%"class.cvc5::internal::NodeTemplate") align 8 %agg.result, ptr nocapture noundef nonnull readonly align 8 dereferenceable(56) %this) unnamed_addr #3 align 2 {
entry:
  %d_te = getelementptr inbounds i8, ptr %this, i64 32
  %0 = load ptr, ptr %d_te, align 8, !noalias !90
  %vtable.i = load ptr, ptr %0, align 8, !noalias !90
  %vfn.i = getelementptr inbounds i8, ptr %vtable.i, i64 24
  %1 = load ptr, ptr %vfn.i, align 8, !noalias !90
  tail call void %1(ptr sret(%"class.cvc5::internal::NodeTemplate") align 8 %agg.result, ptr noundef nonnull align 8 dereferenceable(16) %0)
  ret void
}